(lp0
(lp1
I1296889200
aI1296914400
aI1296918000
aI1296921600
aI1296925200
aI1296928800
aI1296932400
aI1296936000
aI1296939600
aI1296943200
aI1296946800
aI1296950400
aI1296957600
aI1296961200
aI1296964800
aI1297000800
aI1297004400
aI1297008000
aI1297011600
aI1297015200
aI1297018800
aI1297022400
aI1297026000
aI1297029600
aI1297033200
aa(dp2
I1297008000
(dp3
S'runDate'
p4
I20110206
sS'description'
p5
S'Dubbed'
p6
sS'totalRunTime'
p7
I0
sS'parts'
p8
(lp9
(dp10
S'duration'
p11
I0
sS'playAt'
p12
I1297008000
sS'name'
p13
S'/mnt/video/en/MISSING.mkv'
p14
sS'file'
p15
g14
sa(dp16
g11
I0
sg12
I1297008000
sg13
S'/mnt/video/en/MISSING.mkv'
p17
sg15
g17
sasS'runTime'
p18
I1100
sS'id'
p19
I1297008000
sg13
S'Heroic Age'
p20
ssI1296964800
(dp21
g4
I20110205
sg5
S'Subtitled'
p22
sg7
I0
sg8
(lp23
(dp24
g11
I0
sg12
I1296964800
sg13
S'/mnt/video/en/MISSING.mkv'
p25
sg15
g25
sa(dp26
g11
I0
sg12
I1296964800
sg13
S'/mnt/video/en/MISSING.mkv'
p27
sg15
g27
sasg18
I2300
sg19
I1296964800
sg13
S'Sora no Otoshimono: Forte'
p28
ssI1296943200
(dp29
g4
I20110205
sg5
S'Subtitled'
p30
sg7
I2881
sg8
(lp31
(dp32
g11
I1440
sg12
I1296943200
sg13
S'/mnt/video/en/nurarihyon_no_mago_01.720p.sub-en.mkv'
p33
sg15
g33
sa(dp34
g11
I1441
sg12
I1296944640
sg13
S'/mnt/video/en/nurarihyon_no_mago_02.720p.sub-en.mkv'
p35
sg15
g35
sasg18
I1700
sg19
I1296943200
sg13
S'Nurarihyon no Mago'
p36
ssI1297011600
(dp37
g4
I20110206
sg5
S'Subtitled'
p38
sg7
I1470
sg8
(lp39
(dp40
g11
I0
sg12
I1297011600
sg13
S'/mnt/video/en/MISSING.mkv'
p41
sg15
g41
sa(dp42
g11
I1470
sg12
I1297011600
sg13
S'/mnt/video/en/shinrei_tantei_yakumo_02.480p.sub-en.mkv'
p43
sg15
g43
sasg18
I1200
sg19
I1297011600
sg13
S'Shin Tentei Yakumo'
p44
ssI1297000800
(dp45
g4
I20110206
sg5
S'Dubbed'
p46
sg7
I0
sg8
(lp47
(dp48
g11
I0
sg12
I1297000800
sg13
S'/mnt/video/en/MISSING.mkv'
p49
sg15
g49
sa(dp50
g11
I0
sg12
I1297000800
sg13
S'/mnt/video/en/MISSING.mkv'
p51
sg15
g51
sasg18
I900
sg19
I1297000800
sg13
S'Petit Princess Yuchie'
p52
ssI1296932400
(dp53
g4
I20110205
sg5
S'Subtitled'
p54
sg7
I0
sg8
(lp55
(dp56
g11
I0
sg12
I1296932400
sg13
S'/mnt/video/en/MISSING.mkv'
p57
sg15
g57
sa(dp58
g11
I0
sg12
I1296932400
sg13
S'/mnt/video/en/MISSING.mkv'
p59
sg15
g59
sasg18
I1400
sg19
I1296932400
sg13
S'Kuragehime'
p60
ssI1297015200
(dp61
g4
I20110206
sg5
S'Dubbed'
p62
sg7
I0
sg8
(lp63
(dp64
g11
I0
sg12
I1297015200
sg13
S'/mnt/video/en/MISSING.mkv'
p65
sg15
g65
sa(dp66
g11
I0
sg12
I1297015200
sg13
S'/mnt/video/en/MISSING.mkv'
p67
sg15
g67
sasg18
I1300
sg19
I1297015200
sg13
S'The Red Garden'
p68
ssI1296961200
(dp69
g4
I20110205
sg5
S'Subtitled'
p70
sg7
I2882
sg8
(lp71
(dp72
g11
I1442
sg12
I1296961200
sg13
S'/mnt/video/en/highschool_of_the_dead_01.480p.sub-en.mkv'
p73
sg15
g73
sa(dp74
g11
I1440
sg12
I1296962642
sg13
S'/mnt/video/en/highschool_of_the_dead_02.480p.sub-en.mkv'
p75
sg15
g75
sasg18
I2200
sg19
I1296961200
sg13
S'Highschool of the dead'
p76
ssI1296921600
(dp77
g4
I20110205
sg5
S'Dubbed'
p78
sg7
I2904
sg8
(lp79
(dp80
g11
I1437
sg12
I1296921600
sg13
S'/mnt/video/en/fancy_girl_lala_01.480i.dub-en.mkv'
p81
sg15
g81
sa(dp82
g11
I1467
sg12
I1296923037
sg13
S'/mnt/video/en/fancy_girl_lala_02.480i.dub-en.mkv'
p83
sg15
g83
sasg18
I1100
sg19
I1296921600
sg13
S'Fancy Girl Lala'
p84
ssI1296950400
(dp85
g4
I20110205
sg5
S'Dubbed'
p86
sg7
I0
sg8
(lp87
(dp88
g11
I0
sg12
I1296950400
sg13
S'/mnt/video/en/MISSING.mkv'
p89
sg15
g89
sa(dp90
g11
I0
sg12
I1296950400
sg13
S'/mnt/video/en/MISSING.mkv'
p91
sg15
g91
sasg18
I1900
sg19
I1296950400
sg13
S'Saiunkoku'
p92
ssI1297018800
(dp93
g4
I20110206
sg5
S'Subtitled'
p94
sg7
I2740
sg8
(lp95
(dp96
g11
I1370
sg12
I1297018800
sg13
S'/mnt/video/en/shiki_01.720p.sub-en.mkv'
p97
sg15
g97
sa(dp98
g11
I1370
sg12
I1297020170
sg13
S'/mnt/video/en/shiki_02.720p.sub-en.mkv'
p99
sg15
g99
sasg18
I1400
sg19
I1297018800
sg13
S'Shiki'
p100
ssI1296939600
(dp101
g4
I20110205
sg5
S'Subtitled'
p102
sg7
I0
sg8
(lp103
(dp104
g11
I0
sg12
I1296939600
sg13
S'/mnt/video/en/MISSING.mkv'
p105
sg15
g105
sa(dp106
g11
I0
sg12
I1296939600
sg13
S'/mnt/video/en/MISSING.mkv'
p107
sg15
g107
sasg18
I1600
sg19
I1296939600
sg13
S'RAINBOW'
p108
ssI1296936000
(dp109
g4
I20110205
sg5
S'Dubbed'
p110
sg7
I0
sg8
(lp111
(dp112
g11
I0
sg12
I1296936000
sg13
S'/mnt/video/en/MISSING.mkv'
p113
sg15
g113
sa(dp114
g11
I0
sg12
I1296936000
sg13
S'/mnt/video/en/MISSING.mkv'
p115
sg15
g115
sasg18
I1500
sg19
I1296936000
sg13
S'Fishigi Yugi Eikoden'
p116
ssI1296914400
(dp117
g4
I20110205
sg5
S'Subtitled'
p118
sg7
I0
sg8
(lp119
(dp120
g11
I0
sg12
I1296914400
sg13
S'/mnt/video/en/MISSING.mkv'
p121
sg15
g121
sa(dp122
g11
I0
sg12
I1296914400
sg13
S'/mnt/video/en/MISSING.mkv'
p123
sg15
g123
sasg18
I900
sg19
I1296914400
sg13
S'Jewelpet Tinkle'
p124
ssI1296928800
(dp125
g4
I20110205
sg5
S'Brotherhood'
p126
sg7
I0
sg8
(lp127
(dp128
g11
I0
sg12
I1296928800
sg13
S'/mnt/video/en/MISSING.mkv'
p129
sg15
g129
sa(dp130
g11
I0
sg12
I1296928800
sg13
S'/mnt/video/en/MISSING.mkv'
p131
sg15
g131
sasg18
I1300
sg19
I1296928800
sg13
S'Full Metal Alchemist'
p132
ssI1296957600
(dp133
g4
I20110205
sg5
S'Subtitled'
p134
sg7
I3144
sg8
(lp135
(dp136
g11
I3144
sg12
I1296957600
sg13
S'/mnt/video/en/black_rock_shooter_ova.480p.sub-en.mkv'
p137
sg15
g137
sasg18
I2100
sg19
I1296957600
sg13
S'Black Rock Shooter'
p138
ssI1297026000
(dp139
g4
I20110206
sg5
S'Dubbed'
p140
sg7
I0
sg8
(lp141
(dp142
g11
I0
sg12
I1297026000
sg13
S'/mnt/video/en/MISSING.mkv'
p143
sg15
g143
sa(dp144
g11
I0
sg12
I1297026000
sg13
S'/mnt/video/en/MISSING.mkv'
p145
sg15
g145
sasg18
I1600
sg19
I1297026000
sg13
S'Gunslinger Girl'
p146
ssI1296889200
(dp147
g4
I20110205
sg5
S'Subtitled'
p148
sg7
I2940
sg8
(lp149
(dp150
g11
I1470
sg12
I1296889200
sg13
S'/mnt/video/en/kuroshitsuji_ii_01.720p.sub-en.mkv'
p151
sg15
g151
sa(dp152
g11
I1470
sg12
I1296890670
sg13
S'/mnt/video/en/kuroshitsuji_ii_02.720p.sub-en.mkv'
p153
sg15
g153
sasg18
I200
sg19
I1296889200
sg13
S'Kuyroshitsuji 2 (Black Butler)'
p154
ssI1296918000
(dp155
g4
I20110205
sg5
S'Subtitled'
p156
sg7
I0
sg8
(lp157
(dp158
g11
I0
sg12
I1296918000
sg13
S'/mnt/video/en/MISSING.mkv'
p159
sg15
g159
sa(dp160
g11
I0
sg12
I1296918000
sg13
S'/mnt/video/en/MISSING.mkv'
p161
sg15
g161
sasg18
I1000
sg19
I1296918000
sg13
S'Tentei Opera Milk Holmes'
p162
ssI1296946800
(dp163
g4
I20110205
sg5
S'Dubbed'
p164
sg7
I0
sg8
(lp165
(dp166
g11
I0
sg12
I1296946800
sg13
S'/mnt/video/en/MISSING.mkv'
p167
sg15
g167
sa(dp168
g11
I0
sg12
I1296946800
sg13
S'/mnt/video/en/MISSING.mkv'
p169
sg15
g169
sasg18
I1800
sg19
I1296946800
sg13
S'Witchblade'
p170
ssI1297029600
(dp171
g4
I20110206
sg5
S'Dubbed'
p172
sg7
I0
sg8
(lp173
(dp174
g11
I0
sg12
I1297029600
sg13
S'/mnt/video/en/MISSING.mkv'
p175
sg15
g175
sasg18
I1700
sg19
I1297029600
sg13
S'Claymore'
p176
ssI1297004400
(dp177
g4
I20110206
sg5
S'Subtitled'
p178
sg7
I0
sg8
(lp179
(dp180
g11
I0
sg12
I1297004400
sg13
S'/mnt/video/en/MISSING.mkv'
p181
sg15
g181
sasg18
I1000
sg19
I1297004400
sg13
S'shukufuku no campanella'
p182
ssI1297033200
(dp183
g4
I20110206
sg5
S'Dubbed'
p184
sg7
I0
sg8
(lp185
(dp186
g11
I0
sg12
I1297033200
sg13
S'/mnt/video/en/MISSING.mkv'
p187
sg15
g187
sasg18
I1800
sg19
I1297033200
sg13
S'Sasami'
p188
ssI1297022400
(dp189
g4
I20110206
sg5
S'Dubbed'
p190
sg7
I0
sg8
(lp191
(dp192
g11
I0
sg12
I1297022400
sg13
S'/mnt/video/en/MISSING.mkv'
p193
sg15
g193
sa(dp194
g11
I0
sg12
I1297022400
sg13
S'/mnt/video/en/MISSING.mkv'
p195
sg15
g195
sasg18
I1500
sg19
I1297022400
sg13
S'Peach Girl'
p196
ssI1296925200
(dp197
g4
I20110205
sg5
S'Subtitled'
p198
sg7
I0
sg8
(lp199
(dp200
g11
I0
sg12
I1296925200
sg13
S'/mnt/video/en/MISSING.mkv'
p201
sg15
g201
sasg18
I1200
sg19
I1296925200
sg13
S'Otome Youkai Zakuro'
p202
ssa.